; Function Attrs: mustprogress nounwind uwtable
define internal void @_ZN12_GLOBAL__N_121FunctionArgEnumeratorD2Ev(ptr noundef nonnull align 8 captures(none) dereferenceable(56) initializes((0, 8)) %0) unnamed_addr #0 align 2 {
  store ptr getelementptr inbounds nuw inrange(-16, 48) (i8, ptr @_ZTVN12_GLOBAL__N_121FunctionArgEnumeratorE, i64 16), ptr %0, align 8
  %2 = getelementptr inbounds nuw i8, ptr %0, i64 24
  %3 = load ptr, ptr %2, align 8
  %4 = getelementptr inbounds nuw i8, ptr %0, i64 32
  %5 = load ptr, ptr %4, align 8
  %.not4.i.i.i.i = icmp eq ptr %3, %5
  br i1 %.not4.i.i.i.i, label %_ZSt8_DestroyIPSt10unique_ptrIN4llvm3pdb13PDBSymbolDataESt14default_deleteIS3_EES6_EvT_S8_RSaIT0_E.exit.i, label %.lr.ph.i.i.i.i

.lr.ph.i.i.i.i:                                   ; preds = %1, %_ZSt8_DestroyISt10unique_ptrIN4llvm3pdb13PDBSymbolDataESt14default_deleteIS3_EEEvPT_.exit.i.i.i.i
  %.05.i.i.i.i = phi ptr [ %10, %_ZSt8_DestroyISt10unique_ptrIN4llvm3pdb13PDBSymbolDataESt14default_deleteIS3_EEEvPT_.exit.i.i.i.i ], [ %3, %1 ]
  %6 = load ptr, ptr %.05.i.i.i.i, align 8
  %.not.i.i.i.i.i.i = icmp eq ptr %6, null
  br i1 %.not.i.i.i.i.i.i, label %_ZSt8_DestroyISt10unique_ptrIN4llvm3pdb13PDBSymbolDataESt14default_deleteIS3_EEEvPT_.exit.i.i.i.i, label %_ZNKSt14default_deleteIN4llvm3pdb13PDBSymbolDataEEclEPS2_.exit.i.i.i.i.i.i

_ZNKSt14default_deleteIN4llvm3pdb13PDBSymbolDataEEclEPS2_.exit.i.i.i.i.i.i: ; preds = %.lr.ph.i.i.i.i
  %7 = load ptr, ptr %6, align 8
  %8 = getelementptr inbounds nuw i8, ptr %7, i64 8
  %9 = load ptr, ptr %8, align 8
  tail call void %9(ptr noundef nonnull align 8 dereferenceable(32) %6) #15
  br label %_ZSt8_DestroyISt10unique_ptrIN4llvm3pdb13PDBSymbolDataESt14default_deleteIS3_EEEvPT_.exit.i.i.i.i

_ZSt8_DestroyISt10unique_ptrIN4llvm3pdb13PDBSymbolDataESt14default_deleteIS3_EEEvPT_.exit.i.i.i.i: ; preds = %_ZNKSt14default_deleteIN4llvm3pdb13PDBSymbolDataEEclEPS2_.exit.i.i.i.i.i.i, %.lr.ph.i.i.i.i
  store ptr null, ptr %.05.i.i.i.i, align 8
  %10 = getelementptr inbounds nuw i8, ptr %.05.i.i.i.i, i64 8
  %.not.i.i.i.i = icmp eq ptr %10, %5
  br i1 %.not.i.i.i.i, label %_ZSt8_DestroyIPSt10unique_ptrIN4llvm3pdb13PDBSymbolDataESt14default_deleteIS3_EES6_EvT_S8_RSaIT0_E.exitthread-pre-split.i, label %.lr.ph.i.i.i.i, !llvm.loop !48

_ZSt8_DestroyIPSt10unique_ptrIN4llvm3pdb13PDBSymbolDataESt14default_deleteIS3_EES6_EvT_S8_RSaIT0_E.exitthread-pre-split.i: ; preds = %_ZSt8_DestroyISt10unique_ptrIN4llvm3pdb13PDBSymbolDataESt14default_deleteIS3_EEEvPT_.exit.i.i.i.i
  %.pr.i = load ptr, ptr %2, align 8
  br label %_ZSt8_DestroyIPSt10unique_ptrIN4llvm3pdb13PDBSymbolDataESt14default_deleteIS3_EES6_EvT_S8_RSaIT0_E.exit.i

_ZSt8_DestroyIPSt10unique_ptrIN4llvm3pdb13PDBSymbolDataESt14default_deleteIS3_EES6_EvT_S8_RSaIT0_E.exit.i: ; preds = %_ZSt8_DestroyIPSt10unique_ptrIN4llvm3pdb13PDBSymbolDataESt14default_deleteIS3_EES6_EvT_S8_RSaIT0_E.exitthread-pre-split.i, %1
  %11 = phi ptr [ %.pr.i, %_ZSt8_DestroyIPSt10unique_ptrIN4llvm3pdb13PDBSymbolDataESt14default_deleteIS3_EES6_EvT_S8_RSaIT0_E.exitthread-pre-split.i ], [ %3, %1 ]
  %.not.i.i.i = icmp eq ptr %11, null
  br i1 %.not.i.i.i, label %_ZNSt6vectorISt10unique_ptrIN4llvm3pdb13PDBSymbolDataESt14default_deleteIS3_EESaIS6_EED2Ev.exit, label %12

12:                                               ; preds = %_ZSt8_DestroyIPSt10unique_ptrIN4llvm3pdb13PDBSymbolDataESt14default_deleteIS3_EES6_EvT_S8_RSaIT0_E.exit.i
  %13 = getelementptr inbounds nuw i8, ptr %0, i64 40
  %14 = load ptr, ptr %13, align 8
  %15 = ptrtoint ptr %14 to i64
  %16 = ptrtoint ptr %11 to i64
  %17 = sub i64 %15, %16
  tail call void @_ZdlPvm(ptr noundef nonnull %11, i64 noundef %17) #17
  br label %_ZNSt6vectorISt10unique_ptrIN4llvm3pdb13PDBSymbolDataESt14default_deleteIS3_EESaIS6_EED2Ev.exit

_ZNSt6vectorISt10unique_ptrIN4llvm3pdb13PDBSymbolDataESt14default_deleteIS3_EESaIS6_EED2Ev.exit: ; preds = %_ZSt8_DestroyIPSt10unique_ptrIN4llvm3pdb13PDBSymbolDataESt14default_deleteIS3_EES6_EvT_S8_RSaIT0_E.exit.i, %12
  ret void
}